target datalayout = "e-m:e-p270:32:32-p271:32:32-p272:64:64-i64:64-i128:128-f80:128-n8:16:32:64-S128"
target triple = "x86_64-pc-linux-gnu"

%struct.URLContext = type { ptr, ptr, ptr, ptr, i32, i32, i32, i32, %struct.AVIOInterruptCB, i64, ptr, ptr, i32 }
%struct.AVIOInterruptCB = type { ptr, ptr }
%struct.CryptoContext = type { ptr, ptr, [4112 x i8], [4112 x i8], ptr, i32, i32, i32, i64, i32, i32, ptr, i32, ptr, i32, ptr, i32, ptr, i32, ptr, i32, ptr, i32, ptr, ptr, ptr, i32, [16 x i8], i32 }

; Function Attrs: inlinehint nounwind uwtable
define internal i32 @ffurl_write(ptr noundef %0, ptr noundef %1, i32 noundef %2) #4 {
  %4 = alloca ptr, align 8
  %5 = alloca ptr, align 8
  %6 = alloca i32, align 4
  store ptr %0, ptr %4, align 8, !tbaa !4
  store ptr %1, ptr %5, align 8, !tbaa !9
  store i32 %2, ptr %6, align 4, !tbaa !11
  %7 = load ptr, ptr %4, align 8, !tbaa !4
  %8 = load ptr, ptr %5, align 8, !tbaa !9
  %9 = load i32, ptr %6, align 4, !tbaa !11
  %10 = call i32 @ffurl_write2(ptr noundef %7, ptr noundef %8, i32 noundef %9)
  ret i32 %10
}

; Function Attrs: nounwind uwtable
define internal i32 @crypto_close(ptr noundef %0) #0 {
  %2 = alloca ptr, align 8
  %3 = alloca ptr, align 8
  %4 = alloca i32, align 4
  %5 = alloca [16 x i8], align 16
  %6 = alloca i32, align 4
  store ptr %0, ptr %2, align 8, !tbaa !4
  call void @llvm.lifetime.start.p0(i64 8, ptr %3) #6
  %7 = load ptr, ptr %2, align 8, !tbaa !4
  %8 = getelementptr inbounds nuw %struct.URLContext, ptr %7, i32 0, i32 2
  %9 = load ptr, ptr %8, align 8, !tbaa !16
  store ptr %9, ptr %3, align 8, !tbaa !22
  call void @llvm.lifetime.start.p0(i64 4, ptr %4) #6
  store i32 0, ptr %4, align 4, !tbaa !11
  %10 = load ptr, ptr %3, align 8, !tbaa !22
  %11 = getelementptr inbounds nuw %struct.CryptoContext, ptr %10, i32 0, i32 24
  %12 = load ptr, ptr %11, align 8, !tbaa !37
  %13 = icmp ne ptr %12, null
  br i1 %13, label %14, label %45

14:                                               ; preds = %1
  call void @llvm.lifetime.start.p0(i64 16, ptr %5) #6
  call void @llvm.lifetime.start.p0(i64 4, ptr %6) #6
  %15 = load ptr, ptr %3, align 8, !tbaa !22
  %16 = getelementptr inbounds nuw %struct.CryptoContext, ptr %15, i32 0, i32 28
  %17 = load i32, ptr %16, align 4, !tbaa !49
  %18 = sub nsw i32 16, %17
  store i32 %18, ptr %6, align 4, !tbaa !11
  %19 = load ptr, ptr %3, align 8, !tbaa !22
  %20 = getelementptr inbounds nuw %struct.CryptoContext, ptr %19, i32 0, i32 27
  %21 = load ptr, ptr %3, align 8, !tbaa !22
  %22 = getelementptr inbounds nuw %struct.CryptoContext, ptr %21, i32 0, i32 28
  %23 = load i32, ptr %22, align 4, !tbaa !49
  %24 = sext i32 %23 to i64
  %25 = getelementptr inbounds [16 x i8], ptr %20, i64 0, i64 %24
  %26 = load i32, ptr %6, align 4, !tbaa !11
  %27 = trunc i32 %26 to i8
  %28 = load i32, ptr %6, align 4, !tbaa !11
  %29 = sext i32 %28 to i64
  call void @llvm.memset.p0.i64(ptr align 1 %25, i8 %27, i64 %29, i1 false)
  %30 = load ptr, ptr %3, align 8, !tbaa !22
  %31 = getelementptr inbounds nuw %struct.CryptoContext, ptr %30, i32 0, i32 24
  %32 = load ptr, ptr %31, align 8, !tbaa !37
  %33 = getelementptr inbounds [16 x i8], ptr %5, i64 0, i64 0
  %34 = load ptr, ptr %3, align 8, !tbaa !22
  %35 = getelementptr inbounds nuw %struct.CryptoContext, ptr %34, i32 0, i32 27
  %36 = getelementptr inbounds [16 x i8], ptr %35, i64 0, i64 0
  %37 = load ptr, ptr %3, align 8, !tbaa !22
  %38 = getelementptr inbounds nuw %struct.CryptoContext, ptr %37, i32 0, i32 21
  %39 = load ptr, ptr %38, align 8, !tbaa !51
  call void @av_aes_crypt(ptr noundef %32, ptr noundef %33, ptr noundef %36, i32 noundef 1, ptr noundef %39, i32 noundef 0)
  %40 = load ptr, ptr %3, align 8, !tbaa !22
  %41 = getelementptr inbounds nuw %struct.CryptoContext, ptr %40, i32 0, i32 1
  %42 = load ptr, ptr %41, align 8, !tbaa !35
  %43 = getelementptr inbounds [16 x i8], ptr %5, i64 0, i64 0
  %44 = call i32 @ffurl_write(ptr noundef %42, ptr noundef %43, i32 noundef 16)
  store i32 %44, ptr %4, align 4, !tbaa !11
  call void @llvm.lifetime.end.p0(i64 4, ptr %6) #6
  call void @llvm.lifetime.end.p0(i64 16, ptr %5) #6
  br label %45

45:                                               ; preds = %14, %1
  %46 = load ptr, ptr %3, align 8, !tbaa !22
  %47 = getelementptr inbounds nuw %struct.CryptoContext, ptr %46, i32 0, i32 1
  %48 = call i32 @ffurl_closep(ptr noundef %47)
  %49 = load ptr, ptr %3, align 8, !tbaa !22
  %50 = getelementptr inbounds nuw %struct.CryptoContext, ptr %49, i32 0, i32 23
  call void @av_freep(ptr noundef %50)
  %51 = load ptr, ptr %3, align 8, !tbaa !22
  %52 = getelementptr inbounds nuw %struct.CryptoContext, ptr %51, i32 0, i32 24
  call void @av_freep(ptr noundef %52)
  %53 = load ptr, ptr %3, align 8, !tbaa !22
  %54 = getelementptr inbounds nuw %struct.CryptoContext, ptr %53, i32 0, i32 25
  call void @av_freep(ptr noundef %54)
  %55 = load i32, ptr %4, align 4, !tbaa !11
  call void @llvm.lifetime.end.p0(i64 4, ptr %4) #6
  call void @llvm.lifetime.end.p0(i64 8, ptr %3) #6
  ret i32 %55
}