; Function Attrs: nounwind uwtable
define internal i32 @crypto_close(ptr noundef readonly captures(none) %0) #0 {
  %2 = alloca [16 x i8], align 16
  %3 = getelementptr inbounds nuw i8, ptr %0, i64 16
  %4 = load ptr, ptr %3, align 8, !tbaa !4
  %5 = getelementptr inbounds nuw i8, ptr %4, i64 8384
  %6 = load ptr, ptr %5, align 8, !tbaa !31
  %.not = icmp eq ptr %6, null
  br i1 %.not, label %22, label %7

7:                                                ; preds = %1
  call void @llvm.lifetime.start.p0(i64 16, ptr nonnull %2) #6
  %8 = getelementptr inbounds nuw i8, ptr %4, i64 8420
  %9 = load i32, ptr %8, align 4, !tbaa !41
  %10 = sub nsw i32 16, %9
  %11 = getelementptr inbounds nuw i8, ptr %4, i64 8404
  %12 = sext i32 %9 to i64
  %13 = getelementptr inbounds [16 x i8], ptr %11, i64 0, i64 %12
  %14 = trunc i32 %10 to i8
  %15 = sext i32 %10 to i64
  tail call void @llvm.memset.p0.i64(ptr nonnull align 1 %13, i8 %14, i64 %15, i1 false)
  %16 = load ptr, ptr %5, align 8, !tbaa !31
  %17 = getelementptr inbounds nuw i8, ptr %4, i64 8360
  %18 = load ptr, ptr %17, align 8, !tbaa !43
  call void @av_aes_crypt(ptr noundef %16, ptr noundef nonnull %2, ptr noundef nonnull %11, i32 noundef 1, ptr noundef %18, i32 noundef 0) #6
  %19 = getelementptr inbounds nuw i8, ptr %4, i64 8
  %20 = load ptr, ptr %19, align 8, !tbaa !29
  %21 = call i32 @ffurl_write2(ptr noundef %20, ptr noundef nonnull %2, i32 noundef 16) #6
  call void @llvm.lifetime.end.p0(i64 16, ptr nonnull %2) #6
  br label %22

22:                                               ; preds = %7, %1
  %.0 = phi i32 [ %21, %7 ], [ 0, %1 ]
  %23 = getelementptr inbounds nuw i8, ptr %4, i64 8
  %24 = call i32 @ffurl_closep(ptr noundef nonnull %23) #6
  %25 = getelementptr inbounds nuw i8, ptr %4, i64 8376
  call void @av_freep(ptr noundef nonnull %25) #6
  call void @av_freep(ptr noundef nonnull %5) #6
  %26 = getelementptr inbounds nuw i8, ptr %4, i64 8392
  call void @av_freep(ptr noundef nonnull %26) #6
  ret i32 %.0
}